; Function Attrs: nounwind uwtable
define hidden noundef i32 @dom_element_class_name_read(ptr noundef %0, ptr nocapture noundef writeonly %1) local_unnamed_addr #0 {
  %3 = tail call ptr @dom_object_get_node(ptr noundef %0) #8
  %4 = icmp eq ptr %3, null
  br i1 %4, label %5, label %6

5:                                                ; preds = %2
  tail call void @php_dom_throw_error(i32 noundef 11, i32 noundef 1) #8
  br label %dom_element_reflected_attribute_read.exit

6:                                                ; preds = %2
  %7 = tail call ptr @xmlGetNoNsProp(ptr noundef nonnull %3, ptr noundef nonnull @.str.2) #8
  %8 = icmp eq ptr %7, null
  br i1 %8, label %9, label %12

9:                                                ; preds = %6
  %10 = load ptr, ptr @zend_empty_string, align 8
  store ptr %10, ptr %1, align 8
  %11 = getelementptr inbounds i8, ptr %1, i64 8
  store i32 6, ptr %11, align 8
  br label %dom_element_reflected_attribute_read.exit

12:                                               ; preds = %6
  %13 = tail call i64 @strlen(ptr noundef nonnull dereferenceable(1) %7) #9
  %14 = and i64 %13, -8
  %15 = add i64 %14, 32
  %16 = tail call noalias ptr @_emalloc(i64 noundef %15) #10
  store i32 1, ptr %16, align 4
  %17 = getelementptr inbounds i8, ptr %16, i64 4
  store i32 22, ptr %17, align 4
  %18 = getelementptr inbounds i8, ptr %16, i64 8
  store i64 0, ptr %18, align 8
  %19 = getelementptr inbounds i8, ptr %16, i64 16
  store i64 %13, ptr %19, align 8
  %20 = getelementptr inbounds i8, ptr %16, i64 24
  tail call void @llvm.memcpy.p0.p0.i64(ptr nonnull align 8 %20, ptr nonnull align 1 %7, i64 %13, i1 false)
  %21 = getelementptr inbounds [1 x i8], ptr %20, i64 0, i64 %13
  store i8 0, ptr %21, align 1
  store ptr %16, ptr %1, align 8
  %22 = getelementptr inbounds i8, ptr %1, i64 8
  store i32 262, ptr %22, align 8
  %23 = load ptr, ptr @xmlFree, align 8
  tail call void %23(ptr noundef nonnull %7) #8
  br label %dom_element_reflected_attribute_read.exit

dom_element_reflected_attribute_read.exit:        ; preds = %5, %9, %12
  %.0.i = phi i32 [ -1, %5 ], [ 0, %9 ], [ 0, %12 ]
  ret i32 %.0.i
}